; Function Attrs: nofree norecurse nosync nounwind memory(read, argmem: readwrite, inaccessiblemem: none) uwtable
define internal void @VFilter16i_C(ptr noundef captures(none) %0, i32 noundef %1, i32 noundef %2, i32 noundef %3, i32 noundef %4) #5 {
  %6 = shl nsw i32 %1, 2
  %7 = sext i32 %6 to i64
  br label %8

8:                                                ; preds = %5, %8
  %.010 = phi i32 [ 3, %5 ], [ %10, %8 ]
  %.089 = phi ptr [ %0, %5 ], [ %9, %8 ]
  %9 = getelementptr inbounds i8, ptr %.089, i64 %7
  tail call fastcc void @FilterLoop24_C(ptr noundef %9, i32 noundef %1, i32 noundef 1, i32 noundef 16, i32 noundef %2, i32 noundef %3, i32 noundef %4)
  %10 = add nsw i32 %.010, -1
  %11 = icmp ugt i32 %.010, 1
  br i1 %11, label %8, label %12, !llvm.loop !17

12:                                               ; preds = %8
  ret void
}